; Function Attrs: mustprogress nounwind uwtable
define hidden noundef zeroext i1 @_ZNK8ciMethod20needs_clinit_barrierEv(ptr nocapture noundef nonnull readonly align 8 dereferenceable(160) %0) local_unnamed_addr #0 align 2 {
  %2 = getelementptr inbounds i8, ptr %0, i64 24
  %.sroa.0.0.copyload.i.i = load i64, ptr %2, align 8
  %3 = and i64 %.sroa.0.0.copyload.i.i, 8
  %.not = icmp eq i64 %3, 0
  br i1 %.not, label %21, label %4

4:                                                ; preds = %1
  %5 = getelementptr inbounds i8, ptr %0, i64 40
  %6 = load ptr, ptr %5, align 8
  %7 = getelementptr inbounds i8, ptr %6, i64 65
  %8 = load i8, ptr %7, align 1
  %9 = trunc i8 %8 to i1
  %10 = getelementptr inbounds i8, ptr %6, i64 64
  %11 = load i8, ptr %10, align 8
  %.not.i.i = icmp ne i8 %11, 4
  %or.cond.not.i.i = select i1 %9, i1 %.not.i.i, i1 false
  br i1 %or.cond.not.i.i, label %12, label %_ZN15ciInstanceKlass14is_initializedEv.exit

12:                                               ; preds = %4
  %13 = getelementptr inbounds i8, ptr %6, i64 16
  %14 = load ptr, ptr %13, align 8
  %.not.i.i.i = icmp eq ptr %14, null
  br i1 %.not.i.i.i, label %_ZNK10ciMetadata9is_loadedEv.exit.i.i, label %_ZNK10ciMetadata9is_loadedEv.exit.thread.i.i

_ZNK10ciMetadata9is_loadedEv.exit.i.i:            ; preds = %12
  %15 = load ptr, ptr %6, align 8
  %16 = getelementptr inbounds i8, ptr %15, i64 32
  %17 = load ptr, ptr %16, align 8
  %18 = tail call noundef zeroext i1 %17(ptr noundef nonnull align 8 dereferenceable(24) %6) #14
  br i1 %18, label %_ZNK10ciMetadata9is_loadedEv.exit.thread.i.i, label %_ZN15ciInstanceKlass14is_initializedEv.exit

_ZNK10ciMetadata9is_loadedEv.exit.thread.i.i:     ; preds = %_ZNK10ciMetadata9is_loadedEv.exit.i.i, %12
  tail call void @_ZN15ciInstanceKlass25compute_shared_init_stateEv(ptr noundef nonnull align 8 dereferenceable(144) %6) #14
  br label %_ZN15ciInstanceKlass14is_initializedEv.exit

_ZN15ciInstanceKlass14is_initializedEv.exit:      ; preds = %4, %_ZNK10ciMetadata9is_loadedEv.exit.i.i, %_ZNK10ciMetadata9is_loadedEv.exit.thread.i.i
  %19 = load i8, ptr %10, align 8
  %20 = icmp ne i8 %19, 4
  br label %21

21:                                               ; preds = %_ZN15ciInstanceKlass14is_initializedEv.exit, %1
  %22 = phi i1 [ false, %1 ], [ %20, %_ZN15ciInstanceKlass14is_initializedEv.exit ]
  ret i1 %22
}